target datalayout = "e-m:e-p270:32:32-p271:32:32-p272:64:64-i64:64-i128:128-f80:128-n8:16:32:64-S128"
target triple = "x86_64-pc-linux-gnu"

; Function Attrs: mustprogress uwtable
define noundef float @_Z6ca_phiiPKiPA3_f(i32 noundef %0, ptr noundef %1, ptr noundef %2) #0 {
  %4 = alloca float, align 4
  %5 = alloca i32, align 4
  %6 = alloca ptr, align 8
  %7 = alloca ptr, align 8
  %8 = alloca float, align 4
  %9 = alloca float, align 4
  %10 = alloca i32, align 4
  %11 = alloca i32, align 4
  %12 = alloca i32, align 4
  %13 = alloca i32, align 4
  %14 = alloca i32, align 4
  %15 = alloca i32, align 4
  %16 = alloca i32, align 4
  %17 = alloca i32, align 4
  %18 = alloca [3 x float], align 4
  %19 = alloca [3 x float], align 4
  %20 = alloca [3 x float], align 4
  %21 = alloca [3 x float], align 4
  %22 = alloca [3 x float], align 4
  %23 = alloca i32, align 4
  store i32 %0, ptr %5, align 4, !tbaa !4
  store ptr %1, ptr %6, align 8, !tbaa !26
  store ptr %2, ptr %7, align 8, !tbaa !28
  call void @llvm.lifetime.start.p0(i64 4, ptr %8) #14
  call void @llvm.lifetime.start.p0(i64 4, ptr %9) #14
  call void @llvm.lifetime.start.p0(i64 4, ptr %10) #14
  call void @llvm.lifetime.start.p0(i64 4, ptr %11) #14
  call void @llvm.lifetime.start.p0(i64 4, ptr %12) #14
  call void @llvm.lifetime.start.p0(i64 4, ptr %13) #14
  call void @llvm.lifetime.start.p0(i64 4, ptr %14) #14
  call void @llvm.lifetime.start.p0(i64 4, ptr %15) #14
  call void @llvm.lifetime.start.p0(i64 4, ptr %16) #14
  call void @llvm.lifetime.start.p0(i64 4, ptr %17) #14
  call void @llvm.lifetime.start.p0(i64 12, ptr %18) #14
  call void @llvm.lifetime.start.p0(i64 12, ptr %19) #14
  call void @llvm.lifetime.start.p0(i64 12, ptr %20) #14
  call void @llvm.lifetime.start.p0(i64 12, ptr %21) #14
  call void @llvm.lifetime.start.p0(i64 12, ptr %22) #14
  %24 = load i32, ptr %5, align 4, !tbaa !4
  %25 = icmp sle i32 %24, 4
  br i1 %25, label %26, label %27

26:                                               ; preds = %3
  store float 0.000000e+00, ptr %4, align 4
  store i32 1, ptr %23, align 4
  br label %101

27:                                               ; preds = %3
  store float 0.000000e+00, ptr %9, align 4, !tbaa !11
  store i32 0, ptr %10, align 4, !tbaa !4
  br label %28

28:                                               ; preds = %90, %27
  %29 = load i32, ptr %10, align 4, !tbaa !4
  %30 = load i32, ptr %5, align 4, !tbaa !4
  %31 = sub nsw i32 %30, 4
  %32 = icmp slt i32 %29, %31
  br i1 %32, label %33, label %93

33:                                               ; preds = %28
  %34 = load ptr, ptr %6, align 8, !tbaa !26
  %35 = load i32, ptr %10, align 4, !tbaa !4
  %36 = add nsw i32 %35, 0
  %37 = sext i32 %36 to i64
  %38 = getelementptr inbounds i32, ptr %34, i64 %37
  %39 = load i32, ptr %38, align 4, !tbaa !4
  store i32 %39, ptr %11, align 4, !tbaa !4
  %40 = load ptr, ptr %6, align 8, !tbaa !26
  %41 = load i32, ptr %10, align 4, !tbaa !4
  %42 = add nsw i32 %41, 1
  %43 = sext i32 %42 to i64
  %44 = getelementptr inbounds i32, ptr %40, i64 %43
  %45 = load i32, ptr %44, align 4, !tbaa !4
  store i32 %45, ptr %12, align 4, !tbaa !4
  %46 = load ptr, ptr %6, align 8, !tbaa !26
  %47 = load i32, ptr %10, align 4, !tbaa !4
  %48 = add nsw i32 %47, 2
  %49 = sext i32 %48 to i64
  %50 = getelementptr inbounds i32, ptr %46, i64 %49
  %51 = load i32, ptr %50, align 4, !tbaa !4
  store i32 %51, ptr %13, align 4, !tbaa !4
  %52 = load ptr, ptr %6, align 8, !tbaa !26
  %53 = load i32, ptr %10, align 4, !tbaa !4
  %54 = add nsw i32 %53, 3
  %55 = sext i32 %54 to i64
  %56 = getelementptr inbounds i32, ptr %52, i64 %55
  %57 = load i32, ptr %56, align 4, !tbaa !4
  store i32 %57, ptr %14, align 4, !tbaa !4
  %58 = load ptr, ptr %7, align 8, !tbaa !28
  %59 = load i32, ptr %11, align 4, !tbaa !4
  %60 = sext i32 %59 to i64
  %61 = getelementptr inbounds [3 x float], ptr %58, i64 %60
  %62 = getelementptr inbounds [3 x float], ptr %61, i64 0, i64 0
  %63 = load ptr, ptr %7, align 8, !tbaa !28
  %64 = load i32, ptr %12, align 4, !tbaa !4
  %65 = sext i32 %64 to i64
  %66 = getelementptr inbounds [3 x float], ptr %63, i64 %65
  %67 = getelementptr inbounds [3 x float], ptr %66, i64 0, i64 0
  %68 = load ptr, ptr %7, align 8, !tbaa !28
  %69 = load i32, ptr %13, align 4, !tbaa !4
  %70 = sext i32 %69 to i64
  %71 = getelementptr inbounds [3 x float], ptr %68, i64 %70
  %72 = getelementptr inbounds [3 x float], ptr %71, i64 0, i64 0
  %73 = load ptr, ptr %7, align 8, !tbaa !28
  %74 = load i32, ptr %14, align 4, !tbaa !4
  %75 = sext i32 %74 to i64
  %76 = getelementptr inbounds [3 x float], ptr %73, i64 %75
  %77 = getelementptr inbounds [3 x float], ptr %76, i64 0, i64 0
  %78 = getelementptr inbounds [3 x float], ptr %18, i64 0, i64 0
  %79 = getelementptr inbounds [3 x float], ptr %19, i64 0, i64 0
  %80 = getelementptr inbounds [3 x float], ptr %20, i64 0, i64 0
  %81 = getelementptr inbounds [3 x float], ptr %21, i64 0, i64 0
  %82 = getelementptr inbounds [3 x float], ptr %22, i64 0, i64 0
  %83 = call noundef float @_Z9dih_anglePKfS0_S0_S0_PK5t_pbcPfS4_S4_S4_S4_PiS5_S5_(ptr noundef %62, ptr noundef %67, ptr noundef %72, ptr noundef %77, ptr noundef null, ptr noundef %78, ptr noundef %79, ptr noundef %80, ptr noundef %81, ptr noundef %82, ptr noundef %15, ptr noundef %16, ptr noundef %17)
  %84 = fpext float %83 to double
  %85 = fmul double 0x404CA5DC1A63C1F8, %84
  %86 = fptrunc double %85 to float
  store float %86, ptr %8, align 4, !tbaa !11
  %87 = load float, ptr %8, align 4, !tbaa !11
  %88 = load float, ptr %9, align 4, !tbaa !11
  %89 = fadd float %88, %87
  store float %89, ptr %9, align 4, !tbaa !11
  br label %90

90:                                               ; preds = %33
  %91 = load i32, ptr %10, align 4, !tbaa !4
  %92 = add nsw i32 %91, 1
  store i32 %92, ptr %10, align 4, !tbaa !4
  br label %28, !llvm.loop !34

93:                                               ; preds = %28
  %94 = load float, ptr %9, align 4, !tbaa !11
  %95 = fpext float %94 to double
  %96 = load i32, ptr %5, align 4, !tbaa !4
  %97 = sitofp i32 %96 to double
  %98 = fsub double %97, 4.000000e+00
  %99 = fdiv double %95, %98
  %100 = fptrunc double %99 to float
  store float %100, ptr %4, align 4
  store i32 1, ptr %23, align 4
  br label %101

101:                                              ; preds = %93, %26
  call void @llvm.lifetime.end.p0(i64 12, ptr %22) #14
  call void @llvm.lifetime.end.p0(i64 12, ptr %21) #14
  call void @llvm.lifetime.end.p0(i64 12, ptr %20) #14
  call void @llvm.lifetime.end.p0(i64 12, ptr %19) #14
  call void @llvm.lifetime.end.p0(i64 12, ptr %18) #14
  call void @llvm.lifetime.end.p0(i64 4, ptr %17) #14
  call void @llvm.lifetime.end.p0(i64 4, ptr %16) #14
  call void @llvm.lifetime.end.p0(i64 4, ptr %15) #14
  call void @llvm.lifetime.end.p0(i64 4, ptr %14) #14
  call void @llvm.lifetime.end.p0(i64 4, ptr %13) #14
  call void @llvm.lifetime.end.p0(i64 4, ptr %12) #14
  call void @llvm.lifetime.end.p0(i64 4, ptr %11) #14
  call void @llvm.lifetime.end.p0(i64 4, ptr %10) #14
  call void @llvm.lifetime.end.p0(i64 4, ptr %9) #14
  call void @llvm.lifetime.end.p0(i64 4, ptr %8) #14
  %102 = load float, ptr %4, align 4
  ret float %102
}