; Function Attrs: mustprogress uwtable
define noundef float @_Z6ca_phiiPKiPA3_f(i32 noundef %0, ptr noundef readonly captures(none) %1, ptr noundef %2) local_unnamed_addr #8 {
  %4 = alloca i32, align 4
  %5 = alloca i32, align 4
  %6 = alloca i32, align 4
  %7 = alloca [3 x float], align 4
  %8 = alloca [3 x float], align 4
  %9 = alloca [3 x float], align 4
  %10 = alloca [3 x float], align 4
  %11 = alloca [3 x float], align 4
  call void @llvm.lifetime.start.p0(i64 4, ptr nonnull %4) #21
  call void @llvm.lifetime.start.p0(i64 4, ptr nonnull %5) #21
  call void @llvm.lifetime.start.p0(i64 4, ptr nonnull %6) #21
  call void @llvm.lifetime.start.p0(i64 12, ptr nonnull %7) #21
  call void @llvm.lifetime.start.p0(i64 12, ptr nonnull %8) #21
  call void @llvm.lifetime.start.p0(i64 12, ptr nonnull %9) #21
  call void @llvm.lifetime.start.p0(i64 12, ptr nonnull %10) #21
  call void @llvm.lifetime.start.p0(i64 12, ptr nonnull %11) #21
  %12 = icmp slt i32 %0, 5
  br i1 %12, label %40, label %.lr.ph.preheader

.lr.ph.preheader:                                 ; preds = %3
  %13 = add nsw i32 %0, -4
  %wide.trip.count = zext nneg i32 %13 to i64
  br label %.lr.ph

.lr.ph:                                           ; preds = %.lr.ph.preheader, %.lr.ph
  %indvars.iv = phi i64 [ 0, %.lr.ph.preheader ], [ %indvars.iv.next, %.lr.ph ]
  %.02428 = phi float [ 0.000000e+00, %.lr.ph.preheader ], [ %34, %.lr.ph ]
  %14 = getelementptr inbounds nuw i32, ptr %1, i64 %indvars.iv
  %15 = load i32, ptr %14, align 4, !tbaa !20
  %indvars.iv.next = add nuw nsw i64 %indvars.iv, 1
  %16 = getelementptr inbounds nuw i32, ptr %1, i64 %indvars.iv.next
  %17 = load i32, ptr %16, align 4, !tbaa !20
  %18 = getelementptr inbounds nuw i8, ptr %14, i64 8
  %19 = load i32, ptr %18, align 4, !tbaa !20
  %20 = getelementptr inbounds nuw i8, ptr %14, i64 12
  %21 = load i32, ptr %20, align 4, !tbaa !20
  %22 = sext i32 %15 to i64
  %23 = getelementptr inbounds [3 x float], ptr %2, i64 %22
  %24 = sext i32 %17 to i64
  %25 = getelementptr inbounds [3 x float], ptr %2, i64 %24
  %26 = sext i32 %19 to i64
  %27 = getelementptr inbounds [3 x float], ptr %2, i64 %26
  %28 = sext i32 %21 to i64
  %29 = getelementptr inbounds [3 x float], ptr %2, i64 %28
  %30 = call noundef float @_Z9dih_anglePKfS0_S0_S0_PK5t_pbcPfS4_S4_S4_S4_PiS5_S5_(ptr noundef %23, ptr noundef %25, ptr noundef %27, ptr noundef %29, ptr noundef null, ptr noundef nonnull %7, ptr noundef nonnull %8, ptr noundef nonnull %9, ptr noundef nonnull %10, ptr noundef nonnull %11, ptr noundef nonnull %4, ptr noundef nonnull %5, ptr noundef nonnull %6)
  %31 = fpext float %30 to double
  %32 = fmul double %31, 0x404CA5DC1A63C1F8
  %33 = fptrunc double %32 to float
  %34 = fadd float %.02428, %33
  %exitcond.not = icmp eq i64 %indvars.iv.next, %wide.trip.count
  br i1 %exitcond.not, label %._crit_edge, label %.lr.ph, !llvm.loop !24

._crit_edge:                                      ; preds = %.lr.ph
  %35 = fpext float %34 to double
  %36 = uitofp nneg i32 %0 to double
  %37 = fadd double %36, -4.000000e+00
  %38 = fdiv double %35, %37
  %39 = fptrunc double %38 to float
  br label %40

40:                                               ; preds = %3, %._crit_edge
  %.0 = phi float [ %39, %._crit_edge ], [ 0.000000e+00, %3 ]
  call void @llvm.lifetime.end.p0(i64 12, ptr nonnull %11) #21
  call void @llvm.lifetime.end.p0(i64 12, ptr nonnull %10) #21
  call void @llvm.lifetime.end.p0(i64 12, ptr nonnull %9) #21
  call void @llvm.lifetime.end.p0(i64 12, ptr nonnull %8) #21
  call void @llvm.lifetime.end.p0(i64 12, ptr nonnull %7) #21
  call void @llvm.lifetime.end.p0(i64 4, ptr nonnull %6) #21
  call void @llvm.lifetime.end.p0(i64 4, ptr nonnull %5) #21
  call void @llvm.lifetime.end.p0(i64 4, ptr nonnull %4) #21
  ret float %.0
}